target datalayout = "e-m:e-p270:32:32-p271:32:32-p272:64:64-i64:64-i128:128-f80:128-n8:16:32:64-S128"
target triple = "x86_64-pc-linux-gnu"

@show_optional_fields = internal global i32 -1, align 4
@.str.137 = private unnamed_addr constant [21 x i8] c"show_optional_fields\00", align 1
@.str.172 = private unnamed_addr constant [7 x i8] c"always\00", align 1
@.str.173 = private unnamed_addr constant [6 x i8] c"never\00", align 1
@.str.174 = private unnamed_addr constant [5 x i8] c"auto\00", align 1

; Function Attrs: nounwind uwtable
define internal i32 @opt_show_optional_fields(ptr noundef %0, ptr noundef %1, ptr noundef %2) #0 {
  %4 = alloca i32, align 4
  %5 = alloca ptr, align 8
  %6 = alloca ptr, align 8
  %7 = alloca ptr, align 8
  %8 = alloca double, align 8
  %9 = alloca i32, align 4
  %10 = alloca i32, align 4
  store ptr %0, ptr %5, align 8, !tbaa !37
  store ptr %1, ptr %6, align 8, !tbaa !4
  store ptr %2, ptr %7, align 8, !tbaa !4
  %11 = load ptr, ptr %7, align 8, !tbaa !4
  %12 = call i32 @av_strcasecmp(ptr noundef %11, ptr noundef @.str.172)
  %13 = icmp ne i32 %12, 0
  br i1 %13, label %15, label %14

14:                                               ; preds = %3
  store i32 1, ptr @show_optional_fields, align 4, !tbaa !11
  br label %27

15:                                               ; preds = %3
  %16 = load ptr, ptr %7, align 8, !tbaa !4
  %17 = call i32 @av_strcasecmp(ptr noundef %16, ptr noundef @.str.173)
  %18 = icmp ne i32 %17, 0
  br i1 %18, label %20, label %19

19:                                               ; preds = %15
  store i32 0, ptr @show_optional_fields, align 4, !tbaa !11
  br label %26

20:                                               ; preds = %15
  %21 = load ptr, ptr %7, align 8, !tbaa !4
  %22 = call i32 @av_strcasecmp(ptr noundef %21, ptr noundef @.str.174)
  %23 = icmp ne i32 %22, 0
  br i1 %23, label %25, label %24

24:                                               ; preds = %20
  store i32 -1, ptr @show_optional_fields, align 4, !tbaa !11
  br label %25

25:                                               ; preds = %24, %20
  br label %26

26:                                               ; preds = %25, %19
  br label %27

27:                                               ; preds = %26, %14
  %28 = load i32, ptr @show_optional_fields, align 4, !tbaa !11
  %29 = icmp eq i32 %28, -1
  br i1 %29, label %30, label %47

30:                                               ; preds = %27
  %31 = load ptr, ptr %7, align 8, !tbaa !4
  %32 = call i32 @av_strcasecmp(ptr noundef %31, ptr noundef @.str.174)
  %33 = icmp ne i32 %32, 0
  br i1 %33, label %34, label %47

34:                                               ; preds = %30
  call void @llvm.lifetime.start.p0(i64 8, ptr %8) #14
  call void @llvm.lifetime.start.p0(i64 4, ptr %9) #14
  %35 = load ptr, ptr %7, align 8, !tbaa !4
  %36 = call i32 @parse_number(ptr noundef @.str.137, ptr noundef %35, i32 noundef 3, double noundef -1.000000e+00, double noundef 1.000000e+00, ptr noundef %8)
  store i32 %36, ptr %9, align 4, !tbaa !11
  %37 = load i32, ptr %9, align 4, !tbaa !11
  %38 = icmp slt i32 %37, 0
  br i1 %38, label %39, label %41

39:                                               ; preds = %34
  %40 = load i32, ptr %9, align 4, !tbaa !11
  store i32 %40, ptr %4, align 4
  store i32 1, ptr %10, align 4
  br label %44

41:                                               ; preds = %34
  %42 = load double, ptr %8, align 8, !tbaa !119
  %43 = fptosi double %42 to i32
  store i32 %43, ptr @show_optional_fields, align 4, !tbaa !11
  store i32 0, ptr %10, align 4
  br label %44

44:                                               ; preds = %41, %39
  call void @llvm.lifetime.end.p0(i64 4, ptr %9) #14
  call void @llvm.lifetime.end.p0(i64 8, ptr %8) #14
  %45 = load i32, ptr %10, align 4
  switch i32 %45, label %50 [
    i32 0, label %46
    i32 1, label %48
  ]

46:                                               ; preds = %44
  br label %47

47:                                               ; preds = %46, %30, %27
  store i32 0, ptr %4, align 4
  br label %48

48:                                               ; preds = %47, %44
  %49 = load i32, ptr %4, align 4
  ret i32 %49

50:                                               ; preds = %44
  unreachable
}