; Function Attrs: nounwind uwtable
define internal range(i32 -2147483648, 1) i32 @opt_show_optional_fields(ptr readnone captures(none) %0, ptr readnone captures(none) %1, ptr noundef %2) #0 {
  %4 = alloca double, align 8
  %5 = tail call i32 @av_strcasecmp(ptr noundef %2, ptr noundef nonnull @.str.172) #20
  %.not = icmp eq i32 %5, 0
  br i1 %.not, label %6, label %7

6:                                                ; preds = %3
  store i32 1, ptr @show_optional_fields, align 4, !tbaa !11
  br label %.thread

7:                                                ; preds = %3
  %8 = tail call i32 @av_strcasecmp(ptr noundef %2, ptr noundef nonnull @.str.173) #20
  %.not9 = icmp eq i32 %8, 0
  br i1 %.not9, label %9, label %10

9:                                                ; preds = %7
  store i32 0, ptr @show_optional_fields, align 4, !tbaa !11
  br label %.thread

10:                                               ; preds = %7
  %11 = tail call i32 @av_strcasecmp(ptr noundef %2, ptr noundef nonnull @.str.174) #20
  %.not10 = icmp eq i32 %11, 0
  br i1 %.not10, label %.thread12, label %12

.thread12:                                        ; preds = %10
  store i32 -1, ptr @show_optional_fields, align 4, !tbaa !11
  br label %14

12:                                               ; preds = %10
  %.pr = load i32, ptr @show_optional_fields, align 4, !tbaa !11
  %13 = icmp eq i32 %.pr, -1
  br i1 %13, label %14, label %.thread

14:                                               ; preds = %.thread12, %12
  %15 = tail call i32 @av_strcasecmp(ptr noundef %2, ptr noundef nonnull @.str.174) #20
  %.not11 = icmp eq i32 %15, 0
  br i1 %.not11, label %.thread, label %16

16:                                               ; preds = %14
  call void @llvm.lifetime.start.p0(i64 8, ptr nonnull %4) #20
  %17 = call i32 @parse_number(ptr noundef nonnull @.str.137, ptr noundef %2, i32 noundef 3, double noundef -1.000000e+00, double noundef 1.000000e+00, ptr noundef nonnull %4) #20
  %18 = icmp slt i32 %17, 0
  br i1 %18, label %21, label %.thread13

.thread13:                                        ; preds = %16
  %19 = load double, ptr %4, align 8, !tbaa !134
  %20 = fptosi double %19 to i32
  store i32 %20, ptr @show_optional_fields, align 4, !tbaa !11
  call void @llvm.lifetime.end.p0(i64 8, ptr nonnull %4) #20
  br label %.thread

21:                                               ; preds = %16
  call void @llvm.lifetime.end.p0(i64 8, ptr nonnull %4) #20
  br label %.thread

.thread:                                          ; preds = %6, %9, %12, %14, %.thread13, %21
  %.1 = phi i32 [ %17, %21 ], [ 0, %.thread13 ], [ 0, %14 ], [ 0, %12 ], [ 0, %9 ], [ 0, %6 ]
  ret i32 %.1
}